target datalayout = "e-m:e-p270:32:32-p271:32:32-p272:64:64-i64:64-i128:128-f80:128-n8:16:32:64-S128"
target triple = "x86_64-pc-linux-gnu"

%struct.ARKodeMemRec = type { ptr, double, ptr, i32, i32, double, double, ptr, i32, double, ptr, i32, i32, ptr, ptr, i32, ptr, ptr, i32, ptr, ptr, ptr, ptr, ptr, ptr, ptr, ptr, ptr, ptr, ptr, ptr, ptr, ptr, ptr, i32, ptr, ptr, i32, ptr, i32, ptr, ptr, ptr, ptr, ptr, ptr, ptr, ptr, ptr, ptr, ptr, ptr, ptr, ptr, ptr, ptr, ptr, ptr, ptr, ptr, ptr, ptr, ptr, ptr, ptr, ptr, i32, ptr, ptr, ptr, ptr, ptr, ptr, ptr, i32, ptr, ptr, ptr, i32, ptr, ptr, ptr, ptr, ptr, ptr, ptr, i32, i32, i32, i32, double, double, double, double, double, double, double, double, double, double, i32, ptr, i64, i32, i32, i32, i32, i64, i64, i32, i64, i64, i64, i64, i64, i64, i64, double, double, double, double, double, i32, double, double, i32, i32, i32, i32, i32, i32, i32, i32, ptr, i32, ptr, ptr, ptr, ptr, i32, i32, i32 }
%struct.ARKodeLSRKStepMemRec = type { ptr, ptr, i32, i32, i32, i32, i64, i64, i32, i32, i64, i64, double, double, double, double, double, double, i64, i32, i32, i32, i32, ptr, ptr, i32 }
%struct._generic_N_Vector = type { ptr, ptr, ptr }
%struct._generic_N_Vector_Ops = type { ptr, ptr, ptr, ptr, ptr, ptr, ptr, ptr, ptr, ptr, ptr, ptr, ptr, ptr, ptr, ptr, ptr, ptr, ptr, ptr, ptr, ptr, ptr, ptr, ptr, ptr, ptr, ptr, ptr, ptr, ptr, ptr, ptr, ptr, ptr, ptr, ptr, ptr, ptr, ptr, ptr, ptr, ptr, ptr, ptr, ptr, ptr, ptr, ptr, ptr, ptr, ptr, ptr, ptr, ptr, ptr }

@__func__.lsrkStep_Create_Commons = private unnamed_addr constant [24 x i8] c"lsrkStep_Create_Commons\00", align 1
@.str = private unnamed_addr constant [124 x i8] c"generated/home/dtcxzyw/WorkSpace/Projects/compilers/llvm-opt-benchmark/bench/sundials/sundials/src/arkode/arkode_lsrkstep.c\00", align 1
@.str.1 = private unnamed_addr constant [49 x i8] c"Must specify at least one of fe, fi (both NULL).\00", align 1
@.str.2 = private unnamed_addr constant [19 x i8] c"y0 = NULL illegal.\00", align 1
@.str.3 = private unnamed_addr constant [23 x i8] c"sunctx = NULL illegal.\00", align 1
@.str.4 = private unnamed_addr constant [48 x i8] c"A required vector operation is not implemented.\00", align 1
@.str.5 = private unnamed_addr constant [27 x i8] c"arkode_mem = NULL illegal.\00", align 1
@.str.6 = private unnamed_addr constant [33 x i8] c"Allocation of arkode_mem failed.\00", align 1
@.str.7 = private unnamed_addr constant [37 x i8] c"Error setting default solver options\00", align 1
@.str.8 = private unnamed_addr constant [48 x i8] c"Unable to initialize main ARKODE infrastructure\00", align 1

; Function Attrs: nounwind uwtable
define i32 @lsrkStep_CheckNVector(ptr noundef %0) #0 {
  %2 = alloca i32, align 4
  %3 = alloca ptr, align 8
  store ptr %0, ptr %3, align 8, !tbaa !9
  %4 = load ptr, ptr %3, align 8, !tbaa !9
  %5 = getelementptr inbounds nuw %struct._generic_N_Vector, ptr %4, i32 0, i32 1
  %6 = load ptr, ptr %5, align 8, !tbaa !57
  %7 = getelementptr inbounds nuw %struct._generic_N_Vector_Ops, ptr %6, i32 0, i32 1
  %8 = load ptr, ptr %7, align 8, !tbaa !60
  %9 = icmp eq ptr %8, null
  br i1 %9, label %52, label %10

10:                                               ; preds = %1
  %11 = load ptr, ptr %3, align 8, !tbaa !9
  %12 = getelementptr inbounds nuw %struct._generic_N_Vector, ptr %11, i32 0, i32 1
  %13 = load ptr, ptr %12, align 8, !tbaa !57
  %14 = getelementptr inbounds nuw %struct._generic_N_Vector_Ops, ptr %13, i32 0, i32 3
  %15 = load ptr, ptr %14, align 8, !tbaa !62
  %16 = icmp eq ptr %15, null
  br i1 %16, label %52, label %17

17:                                               ; preds = %10
  %18 = load ptr, ptr %3, align 8, !tbaa !9
  %19 = getelementptr inbounds nuw %struct._generic_N_Vector, ptr %18, i32 0, i32 1
  %20 = load ptr, ptr %19, align 8, !tbaa !57
  %21 = getelementptr inbounds nuw %struct._generic_N_Vector_Ops, ptr %20, i32 0, i32 11
  %22 = load ptr, ptr %21, align 8, !tbaa !63
  %23 = icmp eq ptr %22, null
  br i1 %23, label %52, label %24

24:                                               ; preds = %17
  %25 = load ptr, ptr %3, align 8, !tbaa !9
  %26 = getelementptr inbounds nuw %struct._generic_N_Vector, ptr %25, i32 0, i32 1
  %27 = load ptr, ptr %26, align 8, !tbaa !57
  %28 = getelementptr inbounds nuw %struct._generic_N_Vector_Ops, ptr %27, i32 0, i32 12
  %29 = load ptr, ptr %28, align 8, !tbaa !64
  %30 = icmp eq ptr %29, null
  br i1 %30, label %52, label %31

31:                                               ; preds = %24
  %32 = load ptr, ptr %3, align 8, !tbaa !9
  %33 = getelementptr inbounds nuw %struct._generic_N_Vector, ptr %32, i32 0, i32 1
  %34 = load ptr, ptr %33, align 8, !tbaa !57
  %35 = getelementptr inbounds nuw %struct._generic_N_Vector_Ops, ptr %34, i32 0, i32 15
  %36 = load ptr, ptr %35, align 8, !tbaa !65
  %37 = icmp eq ptr %36, null
  br i1 %37, label %52, label %38

38:                                               ; preds = %31
  %39 = load ptr, ptr %3, align 8, !tbaa !9
  %40 = getelementptr inbounds nuw %struct._generic_N_Vector, ptr %39, i32 0, i32 1
  %41 = load ptr, ptr %40, align 8, !tbaa !57
  %42 = getelementptr inbounds nuw %struct._generic_N_Vector_Ops, ptr %41, i32 0, i32 21
  %43 = load ptr, ptr %42, align 8, !tbaa !66
  %44 = icmp eq ptr %43, null
  br i1 %44, label %52, label %45

45:                                               ; preds = %38
  %46 = load ptr, ptr %3, align 8, !tbaa !9
  %47 = getelementptr inbounds nuw %struct._generic_N_Vector, ptr %46, i32 0, i32 1
  %48 = load ptr, ptr %47, align 8, !tbaa !57
  %49 = getelementptr inbounds nuw %struct._generic_N_Vector_Ops, ptr %48, i32 0, i32 4
  %50 = load ptr, ptr %49, align 8, !tbaa !67
  %51 = icmp eq ptr %50, null
  br i1 %51, label %52, label %53

52:                                               ; preds = %45, %38, %31, %24, %17, %10, %1
  store i32 0, ptr %2, align 4
  br label %54

53:                                               ; preds = %45
  store i32 1, ptr %2, align 4
  br label %54

54:                                               ; preds = %53, %52
  %55 = load i32, ptr %2, align 4
  ret i32 %55
}

; Function Attrs: nounwind uwtable
define ptr @lsrkStep_Create_Commons(ptr noundef %0, double noundef %1, ptr noundef %2, ptr noundef %3) #0 {
  %5 = alloca ptr, align 8
  %6 = alloca ptr, align 8
  %7 = alloca double, align 8
  %8 = alloca ptr, align 8
  %9 = alloca ptr, align 8
  %10 = alloca ptr, align 8
  %11 = alloca ptr, align 8
  %12 = alloca i32, align 4
  %13 = alloca i32, align 4
  %14 = alloca i32, align 4
  store ptr %0, ptr %6, align 8, !tbaa !3
  store double %1, ptr %7, align 8, !tbaa !7
  store ptr %2, ptr %8, align 8, !tbaa !9
  store ptr %3, ptr %9, align 8, !tbaa !11
  call void @llvm.lifetime.start.p0(i64 8, ptr %10) #6
  call void @llvm.lifetime.start.p0(i64 8, ptr %11) #6
  call void @llvm.lifetime.start.p0(i64 4, ptr %12) #6
  call void @llvm.lifetime.start.p0(i64 4, ptr %13) #6
  %15 = load ptr, ptr %6, align 8, !tbaa !3
  %16 = icmp eq ptr %15, null
  br i1 %16, label %17, label %18

17:                                               ; preds = %4
  call void (ptr, i32, i32, ptr, ptr, ptr, ...) @arkProcessError(ptr noundef null, i32 noundef -22, i32 noundef 130, ptr noundef @__func__.lsrkStep_Create_Commons, ptr noundef @.str, ptr noundef @.str.1)
  store ptr null, ptr %5, align 8
  store i32 1, ptr %14, align 4
  br label %106

18:                                               ; preds = %4
  %19 = load ptr, ptr %8, align 8, !tbaa !9
  %20 = icmp eq ptr %19, null
  br i1 %20, label %21, label %22

21:                                               ; preds = %18
  call void (ptr, i32, i32, ptr, ptr, ptr, ...) @arkProcessError(ptr noundef null, i32 noundef -22, i32 noundef 138, ptr noundef @__func__.lsrkStep_Create_Commons, ptr noundef @.str, ptr noundef @.str.2)
  store ptr null, ptr %5, align 8
  store i32 1, ptr %14, align 4
  br label %106

22:                                               ; preds = %18
  %23 = load ptr, ptr %9, align 8, !tbaa !11
  %24 = icmp eq ptr %23, null
  br i1 %24, label %25, label %26

25:                                               ; preds = %22
  call void (ptr, i32, i32, ptr, ptr, ptr, ...) @arkProcessError(ptr noundef null, i32 noundef -22, i32 noundef 145, ptr noundef @__func__.lsrkStep_Create_Commons, ptr noundef @.str, ptr noundef @.str.3)
  store ptr null, ptr %5, align 8
  store i32 1, ptr %14, align 4
  br label %106

26:                                               ; preds = %22
  %27 = load ptr, ptr %8, align 8, !tbaa !9
  %28 = call i32 @lsrkStep_CheckNVector(ptr noundef %27)
  store i32 %28, ptr %12, align 4, !tbaa !15
  %29 = load i32, ptr %12, align 4, !tbaa !15
  %30 = icmp ne i32 %29, 0
  br i1 %30, label %32, label %31

31:                                               ; preds = %26
  call void (ptr, i32, i32, ptr, ptr, ptr, ...) @arkProcessError(ptr noundef null, i32 noundef -22, i32 noundef 154, ptr noundef @__func__.lsrkStep_Create_Commons, ptr noundef @.str, ptr noundef @.str.4)
  store ptr null, ptr %5, align 8
  store i32 1, ptr %14, align 4
  br label %106

32:                                               ; preds = %26
  %33 = load ptr, ptr %9, align 8, !tbaa !11
  %34 = call ptr @arkCreate(ptr noundef %33)
  store ptr %34, ptr %10, align 8, !tbaa !13
  %35 = load ptr, ptr %10, align 8, !tbaa !13
  %36 = icmp eq ptr %35, null
  br i1 %36, label %37, label %38

37:                                               ; preds = %32
  call void (ptr, i32, i32, ptr, ptr, ptr, ...) @arkProcessError(ptr noundef null, i32 noundef -21, i32 noundef 163, ptr noundef @__func__.lsrkStep_Create_Commons, ptr noundef @.str, ptr noundef @.str.5)
  store ptr null, ptr %5, align 8
  store i32 1, ptr %14, align 4
  br label %106

38:                                               ; preds = %32
  %39 = call noalias ptr @calloc(i64 noundef 1, i64 noundef 168) #7
  store ptr %39, ptr %11, align 8, !tbaa !17
  %40 = load ptr, ptr %11, align 8, !tbaa !17
  %41 = icmp eq ptr %40, null
  br i1 %41, label %42, label %44

42:                                               ; preds = %38
  %43 = load ptr, ptr %10, align 8, !tbaa !13
  call void (ptr, i32, i32, ptr, ptr, ptr, ...) @arkProcessError(ptr noundef %43, i32 noundef -20, i32 noundef 172, ptr noundef @__func__.lsrkStep_Create_Commons, ptr noundef @.str, ptr noundef @.str.6)
  call void @ARKodeFree(ptr noundef %10)
  store ptr null, ptr %5, align 8
  store i32 1, ptr %14, align 4
  br label %106

44:                                               ; preds = %38
  %45 = load ptr, ptr %10, align 8, !tbaa !13
  %46 = getelementptr inbounds nuw %struct.ARKodeMemRec, ptr %45, i32 0, i32 20
  store ptr @lsrkStep_Init, ptr %46, align 8, !tbaa !19
  %47 = load ptr, ptr %10, align 8, !tbaa !13
  %48 = getelementptr inbounds nuw %struct.ARKodeMemRec, ptr %47, i32 0, i32 21
  store ptr @lsrkStep_FullRHS, ptr %48, align 8, !tbaa !26
  %49 = load ptr, ptr %10, align 8, !tbaa !13
  %50 = getelementptr inbounds nuw %struct.ARKodeMemRec, ptr %49, i32 0, i32 22
  store ptr @lsrkStep_TakeStepRKC, ptr %50, align 8, !tbaa !27
  %51 = load ptr, ptr %10, align 8, !tbaa !13
  %52 = getelementptr inbounds nuw %struct.ARKodeMemRec, ptr %51, i32 0, i32 24
  store ptr @lsrkStep_PrintAllStats, ptr %52, align 8, !tbaa !28
  %53 = load ptr, ptr %10, align 8, !tbaa !13
  %54 = getelementptr inbounds nuw %struct.ARKodeMemRec, ptr %53, i32 0, i32 25
  store ptr @lsrkStep_WriteParameters, ptr %54, align 8, !tbaa !29
  %55 = load ptr, ptr %10, align 8, !tbaa !13
  %56 = getelementptr inbounds nuw %struct.ARKodeMemRec, ptr %55, i32 0, i32 28
  store ptr @lsrkStep_Free, ptr %56, align 8, !tbaa !30
  %57 = load ptr, ptr %10, align 8, !tbaa !13
  %58 = getelementptr inbounds nuw %struct.ARKodeMemRec, ptr %57, i32 0, i32 29
  store ptr @lsrkStep_PrintMem, ptr %58, align 8, !tbaa !31
  %59 = load ptr, ptr %10, align 8, !tbaa !13
  %60 = getelementptr inbounds nuw %struct.ARKodeMemRec, ptr %59, i32 0, i32 30
  store ptr @lsrkStep_SetDefaults, ptr %60, align 8, !tbaa !32
  %61 = load ptr, ptr %10, align 8, !tbaa !13
  %62 = getelementptr inbounds nuw %struct.ARKodeMemRec, ptr %61, i32 0, i32 32
  store ptr @lsrkStep_GetNumRhsEvals, ptr %62, align 8, !tbaa !33
  %63 = load ptr, ptr %10, align 8, !tbaa !13
  %64 = getelementptr inbounds nuw %struct.ARKodeMemRec, ptr %63, i32 0, i32 36
  store ptr @lsrkStep_GetEstLocalErrors, ptr %64, align 8, !tbaa !34
  %65 = load ptr, ptr %11, align 8, !tbaa !17
  %66 = load ptr, ptr %10, align 8, !tbaa !13
  %67 = getelementptr inbounds nuw %struct.ARKodeMemRec, ptr %66, i32 0, i32 19
  store ptr %65, ptr %67, align 8, !tbaa !35
  %68 = load ptr, ptr %10, align 8, !tbaa !13
  %69 = getelementptr inbounds nuw %struct.ARKodeMemRec, ptr %68, i32 0, i32 34
  store i32 1, ptr %69, align 8, !tbaa !36
  %70 = load ptr, ptr %10, align 8, !tbaa !13
  %71 = call i32 @lsrkStep_SetDefaults(ptr noundef %70)
  store i32 %71, ptr %13, align 4, !tbaa !15
  %72 = load i32, ptr %13, align 4, !tbaa !15
  %73 = icmp ne i32 %72, 0
  br i1 %73, label %74, label %77

74:                                               ; preds = %44
  %75 = load ptr, ptr %10, align 8, !tbaa !13
  %76 = load i32, ptr %13, align 4, !tbaa !15
  call void (ptr, i32, i32, ptr, ptr, ptr, ...) @arkProcessError(ptr noundef %75, i32 noundef %76, i32 noundef 196, ptr noundef @__func__.lsrkStep_Create_Commons, ptr noundef @.str, ptr noundef @.str.7)
  call void @ARKodeFree(ptr noundef %10)
  store ptr null, ptr %5, align 8
  store i32 1, ptr %14, align 4
  br label %106

77:                                               ; preds = %44
  %78 = load ptr, ptr %6, align 8, !tbaa !3
  %79 = load ptr, ptr %11, align 8, !tbaa !17
  %80 = getelementptr inbounds nuw %struct.ARKodeLSRKStepMemRec, ptr %79, i32 0, i32 0
  store ptr %78, ptr %80, align 8, !tbaa !37
  %81 = load ptr, ptr %11, align 8, !tbaa !17
  %82 = getelementptr inbounds nuw %struct.ARKodeLSRKStepMemRec, ptr %81, i32 0, i32 1
  store ptr null, ptr %82, align 8, !tbaa !41
  %83 = load ptr, ptr %11, align 8, !tbaa !17
  %84 = getelementptr inbounds nuw %struct.ARKodeLSRKStepMemRec, ptr %83, i32 0, i32 6
  store i64 0, ptr %84, align 8, !tbaa !42
  %85 = load ptr, ptr %11, align 8, !tbaa !17
  %86 = getelementptr inbounds nuw %struct.ARKodeLSRKStepMemRec, ptr %85, i32 0, i32 8
  store i32 0, ptr %86, align 8, !tbaa !43
  %87 = load ptr, ptr %11, align 8, !tbaa !17
  %88 = getelementptr inbounds nuw %struct.ARKodeLSRKStepMemRec, ptr %87, i32 0, i32 7
  store i64 0, ptr %88, align 8, !tbaa !44
  %89 = load ptr, ptr %11, align 8, !tbaa !17
  %90 = getelementptr inbounds nuw %struct.ARKodeLSRKStepMemRec, ptr %89, i32 0, i32 9
  store i32 200, ptr %90, align 4, !tbaa !45
  %91 = load ptr, ptr %11, align 8, !tbaa !17
  %92 = getelementptr inbounds nuw %struct.ARKodeLSRKStepMemRec, ptr %91, i32 0, i32 10
  store i64 0, ptr %92, align 8, !tbaa !46
  %93 = load ptr, ptr %10, align 8, !tbaa !13
  %94 = load double, ptr %7, align 8, !tbaa !7
  %95 = load ptr, ptr %8, align 8, !tbaa !9
  %96 = call i32 @arkInit(ptr noundef %93, double noundef %94, ptr noundef %95, i32 noundef 0)
  store i32 %96, ptr %13, align 4, !tbaa !15
  %97 = load i32, ptr %13, align 4, !tbaa !15
  %98 = icmp ne i32 %97, 0
  br i1 %98, label %99, label %102

99:                                               ; preds = %77
  %100 = load ptr, ptr %10, align 8, !tbaa !13
  %101 = load i32, ptr %13, align 4, !tbaa !15
  call void (ptr, i32, i32, ptr, ptr, ptr, ...) @arkProcessError(ptr noundef %100, i32 noundef %101, i32 noundef 219, ptr noundef @__func__.lsrkStep_Create_Commons, ptr noundef @.str, ptr noundef @.str.8)
  call void @ARKodeFree(ptr noundef %10)
  store ptr null, ptr %5, align 8
  store i32 1, ptr %14, align 4
  br label %106

102:                                              ; preds = %77
  %103 = load ptr, ptr %10, align 8, !tbaa !13
  %104 = call i32 @ARKodeSetInterpolantType(ptr noundef %103, i32 noundef 1)
  %105 = load ptr, ptr %10, align 8, !tbaa !13
  store ptr %105, ptr %5, align 8
  store i32 1, ptr %14, align 4
  br label %106

106:                                              ; preds = %102, %99, %74, %42, %37, %31, %25, %21, %17
  call void @llvm.lifetime.end.p0(i64 4, ptr %13) #6
  call void @llvm.lifetime.end.p0(i64 4, ptr %12) #6
  call void @llvm.lifetime.end.p0(i64 8, ptr %11) #6
  call void @llvm.lifetime.end.p0(i64 8, ptr %10) #6
  %107 = load ptr, ptr %5, align 8
  ret ptr %107
}