; Function Attrs: nounwind uwtable
define ptr @lsrkStep_Create_Commons(ptr noundef %0, double noundef %1, ptr noundef %2, ptr noundef %3) local_unnamed_addr #0 {
  %5 = alloca ptr, align 8
  call void @llvm.lifetime.start.p0(i64 8, ptr nonnull %5) #13
  %6 = icmp eq ptr %0, null
  br i1 %6, label %7, label %8

7:                                                ; preds = %4
  tail call void (ptr, i32, i32, ptr, ptr, ptr, ...) @arkProcessError(ptr noundef null, i32 noundef -22, i32 noundef 130, ptr noundef nonnull @__func__.lsrkStep_Create_Commons, ptr noundef nonnull @.str, ptr noundef nonnull @.str.1) #13
  br label %74

8:                                                ; preds = %4
  %9 = icmp eq ptr %2, null
  br i1 %9, label %10, label %11

10:                                               ; preds = %8
  tail call void (ptr, i32, i32, ptr, ptr, ptr, ...) @arkProcessError(ptr noundef null, i32 noundef -22, i32 noundef 138, ptr noundef nonnull @__func__.lsrkStep_Create_Commons, ptr noundef nonnull @.str, ptr noundef nonnull @.str.2) #13
  br label %74

11:                                               ; preds = %8
  %12 = icmp eq ptr %3, null
  br i1 %12, label %13, label %14

13:                                               ; preds = %11
  tail call void (ptr, i32, i32, ptr, ptr, ptr, ...) @arkProcessError(ptr noundef null, i32 noundef -22, i32 noundef 145, ptr noundef nonnull @__func__.lsrkStep_Create_Commons, ptr noundef nonnull @.str, ptr noundef nonnull @.str.3) #13
  br label %74

14:                                               ; preds = %11
  %15 = getelementptr inbounds nuw i8, ptr %2, i64 8
  %16 = load ptr, ptr %15, align 8, !tbaa !25
  %17 = getelementptr inbounds nuw i8, ptr %16, i64 8
  %18 = load ptr, ptr %17, align 8, !tbaa !28
  %19 = icmp eq ptr %18, null
  br i1 %19, label %lsrkStep_CheckNVector.exit.thread, label %20

20:                                               ; preds = %14
  %21 = getelementptr inbounds nuw i8, ptr %16, i64 24
  %22 = load ptr, ptr %21, align 8, !tbaa !30
  %23 = icmp eq ptr %22, null
  br i1 %23, label %lsrkStep_CheckNVector.exit.thread, label %24

24:                                               ; preds = %20
  %25 = getelementptr inbounds nuw i8, ptr %16, i64 88
  %26 = load ptr, ptr %25, align 8, !tbaa !31
  %27 = icmp eq ptr %26, null
  br i1 %27, label %lsrkStep_CheckNVector.exit.thread, label %28

28:                                               ; preds = %24
  %29 = getelementptr inbounds nuw i8, ptr %16, i64 96
  %30 = load ptr, ptr %29, align 8, !tbaa !32
  %31 = icmp eq ptr %30, null
  br i1 %31, label %lsrkStep_CheckNVector.exit.thread, label %32

32:                                               ; preds = %28
  %33 = getelementptr inbounds nuw i8, ptr %16, i64 120
  %34 = load ptr, ptr %33, align 8, !tbaa !33
  %35 = icmp eq ptr %34, null
  br i1 %35, label %lsrkStep_CheckNVector.exit.thread, label %36

36:                                               ; preds = %32
  %37 = getelementptr inbounds nuw i8, ptr %16, i64 168
  %38 = load ptr, ptr %37, align 8, !tbaa !34
  %39 = icmp eq ptr %38, null
  br i1 %39, label %lsrkStep_CheckNVector.exit.thread, label %lsrkStep_CheckNVector.exit

lsrkStep_CheckNVector.exit:                       ; preds = %36
  %40 = getelementptr inbounds nuw i8, ptr %16, i64 32
  %41 = load ptr, ptr %40, align 8, !tbaa !35
  %.not32 = icmp eq ptr %41, null
  br i1 %.not32, label %lsrkStep_CheckNVector.exit.thread, label %42

lsrkStep_CheckNVector.exit.thread:                ; preds = %14, %20, %24, %28, %32, %36, %lsrkStep_CheckNVector.exit
  tail call void (ptr, i32, i32, ptr, ptr, ptr, ...) @arkProcessError(ptr noundef null, i32 noundef -22, i32 noundef 154, ptr noundef nonnull @__func__.lsrkStep_Create_Commons, ptr noundef nonnull @.str, ptr noundef nonnull @.str.4) #13
  br label %74

42:                                               ; preds = %lsrkStep_CheckNVector.exit
  %43 = tail call ptr @arkCreate(ptr noundef nonnull %3) #13
  store ptr %43, ptr %5, align 8, !tbaa !36
  %44 = icmp eq ptr %43, null
  br i1 %44, label %45, label %46

45:                                               ; preds = %42
  tail call void (ptr, i32, i32, ptr, ptr, ptr, ...) @arkProcessError(ptr noundef null, i32 noundef -21, i32 noundef 163, ptr noundef nonnull @__func__.lsrkStep_Create_Commons, ptr noundef nonnull @.str, ptr noundef nonnull @.str.5) #13
  br label %74

46:                                               ; preds = %42
  %47 = tail call noalias dereferenceable_or_null(168) ptr @calloc(i64 noundef 1, i64 noundef 168) #14
  %48 = icmp eq ptr %47, null
  br i1 %48, label %49, label %50

49:                                               ; preds = %46
  tail call void (ptr, i32, i32, ptr, ptr, ptr, ...) @arkProcessError(ptr noundef nonnull %43, i32 noundef -20, i32 noundef 172, ptr noundef nonnull @__func__.lsrkStep_Create_Commons, ptr noundef nonnull @.str, ptr noundef nonnull @.str.6) #13
  call void @ARKodeFree(ptr noundef nonnull %5) #13
  br label %74

50:                                               ; preds = %46
  %51 = getelementptr inbounds nuw i8, ptr %43, i64 144
  store ptr @lsrkStep_Init, ptr %51, align 8, !tbaa !38
  %52 = getelementptr inbounds nuw i8, ptr %43, i64 152
  store ptr @lsrkStep_FullRHS, ptr %52, align 8, !tbaa !39
  %53 = getelementptr inbounds nuw i8, ptr %43, i64 160
  store ptr @lsrkStep_TakeStepRKC, ptr %53, align 8, !tbaa !40
  %54 = getelementptr inbounds nuw i8, ptr %43, i64 176
  store ptr @lsrkStep_PrintAllStats, ptr %54, align 8, !tbaa !41
  %55 = getelementptr inbounds nuw i8, ptr %43, i64 184
  store ptr @lsrkStep_WriteParameters, ptr %55, align 8, !tbaa !42
  %56 = getelementptr inbounds nuw i8, ptr %43, i64 208
  store ptr @lsrkStep_Free, ptr %56, align 8, !tbaa !43
  %57 = getelementptr inbounds nuw i8, ptr %43, i64 216
  store ptr @lsrkStep_PrintMem, ptr %57, align 8, !tbaa !44
  %58 = getelementptr inbounds nuw i8, ptr %43, i64 224
  store ptr @lsrkStep_SetDefaults, ptr %58, align 8, !tbaa !45
  %59 = getelementptr inbounds nuw i8, ptr %43, i64 240
  store ptr @lsrkStep_GetNumRhsEvals, ptr %59, align 8, !tbaa !46
  %60 = getelementptr inbounds nuw i8, ptr %43, i64 272
  store ptr @lsrkStep_GetEstLocalErrors, ptr %60, align 8, !tbaa !47
  %61 = getelementptr inbounds nuw i8, ptr %43, i64 136
  store ptr %47, ptr %61, align 8, !tbaa !3
  %62 = getelementptr inbounds nuw i8, ptr %43, i64 256
  store i32 1, ptr %62, align 8, !tbaa !48
  %63 = tail call i32 @lsrkStep_SetDefaults(ptr noundef nonnull %43) #13
  %.not28 = icmp eq i32 %63, 0
  br i1 %.not28, label %65, label %64

64:                                               ; preds = %50
  tail call void (ptr, i32, i32, ptr, ptr, ptr, ...) @arkProcessError(ptr noundef nonnull %43, i32 noundef %63, i32 noundef 196, ptr noundef nonnull @__func__.lsrkStep_Create_Commons, ptr noundef nonnull @.str, ptr noundef nonnull @.str.7) #13
  call void @ARKodeFree(ptr noundef nonnull %5) #13
  br label %74

65:                                               ; preds = %50
  store ptr %0, ptr %47, align 8, !tbaa !49
  %66 = getelementptr inbounds nuw i8, ptr %47, i64 8
  store ptr null, ptr %66, align 8, !tbaa !50
  %67 = getelementptr inbounds nuw i8, ptr %47, i64 32
  %68 = getelementptr inbounds nuw i8, ptr %47, i64 52
  tail call void @llvm.memset.p0.i64(ptr noundef nonnull align 8 dereferenceable(20) %67, i8 0, i64 20, i1 false)
  store i32 200, ptr %68, align 4, !tbaa !51
  %69 = getelementptr inbounds nuw i8, ptr %47, i64 56
  store i64 0, ptr %69, align 8, !tbaa !52
  %70 = tail call i32 @arkInit(ptr noundef nonnull %43, double noundef %1, ptr noundef nonnull %2, i32 noundef 0) #13
  %.not29 = icmp eq i32 %70, 0
  br i1 %.not29, label %72, label %71

71:                                               ; preds = %65
  tail call void (ptr, i32, i32, ptr, ptr, ptr, ...) @arkProcessError(ptr noundef nonnull %43, i32 noundef %70, i32 noundef 219, ptr noundef nonnull @__func__.lsrkStep_Create_Commons, ptr noundef nonnull @.str, ptr noundef nonnull @.str.8) #13
  call void @ARKodeFree(ptr noundef nonnull %5) #13
  br label %74

72:                                               ; preds = %65
  %73 = tail call i32 @ARKodeSetInterpolantType(ptr noundef nonnull %43, i32 noundef 1) #13
  br label %74

74:                                               ; preds = %72, %71, %64, %49, %45, %lsrkStep_CheckNVector.exit.thread, %13, %10, %7
  %.0 = phi ptr [ null, %7 ], [ null, %10 ], [ null, %13 ], [ null, %45 ], [ null, %49 ], [ null, %64 ], [ null, %71 ], [ %43, %72 ], [ null, %lsrkStep_CheckNVector.exit.thread ]
  call void @llvm.lifetime.end.p0(i64 8, ptr nonnull %5) #13
  ret ptr %.0
}